target datalayout = "e-m:e-p270:32:32-p271:32:32-p272:64:64-i64:64-i128:128-f80:128-n8:16:32:64-S128"
target triple = "x86_64-pc-linux-gnu"

%struct._psqlSettings = type { ptr, i32, ptr, i8, ptr, ptr, %struct.printQueryOpt, ptr, ptr, ptr, i8, i8, i32, i32, ptr, ptr, i8, [4 x ptr], i8, i32, ptr, i8, i32, ptr, ptr, i64, i64, i8, ptr, ptr, ptr, i8, i8, i8, i8, i8, i8, i8, i32, i32, i32, i32, i32, i32, i32, i32, ptr, ptr, ptr, i32, i8, i32 }
%struct.printQueryOpt = type { %struct.printTableOpt, ptr, ptr, ptr, i8, ptr, i32 }
%struct.printTableOpt = type { i32, i16, i32, i32, i16, i16, i32, i8, i8, i8, i8, i64, ptr, %struct.separator, %struct.separator, [2 x i8], i8, ptr, i32, i32, i32, i32, i32, i32 }
%struct.separator = type { ptr, i8 }

@pset = external global %struct._psqlSettings, align 8

; Function Attrs: nounwind uwtable
define internal void @ignore_slash_options(ptr noundef %0) #0 {
  %2 = alloca ptr, align 8
  %3 = alloca ptr, align 8
  store ptr %0, ptr %2, align 8
  call void @llvm.lifetime.start.p0(i64 8, ptr %3) #10
  br label %4

4:                                                ; preds = %8, %1
  %5 = load ptr, ptr %2, align 8
  %6 = call ptr @psql_scan_slash_option(ptr noundef %5, i32 noundef 0, ptr noundef null, i1 noundef zeroext false)
  store ptr %6, ptr %3, align 8
  %7 = icmp ne ptr %6, null
  br i1 %7, label %8, label %10

8:                                                ; preds = %4
  %9 = load ptr, ptr %3, align 8
  call void @free(ptr noundef %9) #10
  br label %4, !llvm.loop !18

10:                                               ; preds = %4
  call void @llvm.lifetime.end.p0(i64 8, ptr %3) #10
  ret void
}

; Function Attrs: nounwind uwtable
define internal i32 @exec_command_list(ptr noundef %0, i1 noundef zeroext %1, ptr noundef %2) #0 {
  %4 = alloca ptr, align 8
  %5 = alloca i8, align 1
  %6 = alloca ptr, align 8
  %7 = alloca i8, align 1
  %8 = alloca ptr, align 8
  %9 = alloca i8, align 1
  %10 = alloca i16, align 2
  store ptr %0, ptr %4, align 8
  %11 = zext i1 %1 to i8
  store i8 %11, ptr %5, align 1
  store ptr %2, ptr %6, align 8
  call void @llvm.lifetime.start.p0(i64 1, ptr %7) #10
  store i8 1, ptr %7, align 1
  %12 = load i8, ptr %5, align 1, !range !4, !noundef !5
  %13 = trunc i8 %12 to i1
  br i1 %13, label %14, label %36

14:                                               ; preds = %3
  call void @llvm.lifetime.start.p0(i64 8, ptr %8) #10
  call void @llvm.lifetime.start.p0(i64 1, ptr %9) #10
  call void @llvm.lifetime.start.p0(i64 2, ptr %10) #10
  %15 = load ptr, ptr %4, align 8
  %16 = call ptr @psql_scan_slash_option(ptr noundef %15, i32 noundef 0, ptr noundef null, i1 noundef zeroext true)
  store ptr %16, ptr %8, align 8
  %17 = load ptr, ptr %6, align 8
  %18 = call ptr @strchr(ptr noundef %17, i32 noundef 43) #11
  %19 = icmp ne ptr %18, null
  %20 = select i1 %19, i32 1, i32 0
  %21 = icmp ne i32 %20, 0
  %22 = zext i1 %21 to i8
  store i8 %22, ptr %9, align 1
  %23 = load i16, ptr getelementptr inbounds nuw (%struct.printTableOpt, ptr getelementptr inbounds nuw (%struct._psqlSettings, ptr @pset, i32 0, i32 6), i32 0, i32 1), align 4
  store i16 %23, ptr %10, align 2
  %24 = load ptr, ptr %6, align 8
  %25 = call ptr @strchr(ptr noundef %24, i32 noundef 120) #11
  %26 = icmp ne ptr %25, null
  br i1 %26, label %27, label %28

27:                                               ; preds = %14
  store i16 1, ptr getelementptr inbounds nuw (%struct.printTableOpt, ptr getelementptr inbounds nuw (%struct._psqlSettings, ptr @pset, i32 0, i32 6), i32 0, i32 1), align 4
  br label %28

28:                                               ; preds = %27, %14
  %29 = load ptr, ptr %8, align 8
  %30 = load i8, ptr %9, align 1, !range !4, !noundef !5
  %31 = trunc i8 %30 to i1
  %32 = call zeroext i1 @listAllDbs(ptr noundef %29, i1 noundef zeroext %31)
  %33 = zext i1 %32 to i8
  store i8 %33, ptr %7, align 1
  %34 = load i16, ptr %10, align 2
  store i16 %34, ptr getelementptr inbounds nuw (%struct.printTableOpt, ptr getelementptr inbounds nuw (%struct._psqlSettings, ptr @pset, i32 0, i32 6), i32 0, i32 1), align 4
  %35 = load ptr, ptr %8, align 8
  call void @free(ptr noundef %35) #10
  call void @llvm.lifetime.end.p0(i64 2, ptr %10) #10
  call void @llvm.lifetime.end.p0(i64 1, ptr %9) #10
  call void @llvm.lifetime.end.p0(i64 8, ptr %8) #10
  br label %38

36:                                               ; preds = %3
  %37 = load ptr, ptr %4, align 8
  call void @ignore_slash_options(ptr noundef %37)
  br label %38

38:                                               ; preds = %36, %28
  %39 = load i8, ptr %7, align 1, !range !4, !noundef !5
  %40 = trunc i8 %39 to i1
  %41 = select i1 %40, i32 2, i32 5
  call void @llvm.lifetime.end.p0(i64 1, ptr %7) #10
  ret i32 %41
}